(dp0
S'strength'
p1
F0.5
sS'workflow'
p2
S'txt2img'
p3
sS'cfg'
p4
F7.0
sS'height'
p5
I512
sS'checkpoint'
p6
S''
p7
sS'width'
p8
I512
sS'seed'
p9
I-1
sS'steps'
p10
I20
sS'input_mask'
p11
NsS'p_prompt'
p12
g7
sS'input_image'
p13
NsS'sd_model'
p14
S'SD'
p15
sS'default_model'
p16
I01
sS'n_prompt'
p17
g7
s.